target datalayout = "e-m:e-p270:32:32-p271:32:32-p272:64:64-i64:64-i128:128-f80:128-n8:16:32:64-S128"
target triple = "x86_64-pc-linux-gnu"

; Function Attrs: mustprogress uwtable
define hidden noundef zeroext i1 @_ZNK7datalog13udoc_relation8is_guardEjPKP4expr(ptr noundef nonnull align 8 dereferenceable(128) %0, i32 noundef %1, ptr noundef %2) #4 align 2 {
  %4 = alloca i1, align 1
  %5 = alloca ptr, align 8
  %6 = alloca i32, align 4
  %7 = alloca ptr, align 8
  %8 = alloca i32, align 4
  %9 = alloca i32, align 4
  store ptr %0, ptr %5, align 8, !tbaa !3
  store i32 %1, ptr %6, align 4, !tbaa !16
  store ptr %2, ptr %7, align 8, !tbaa !482
  %10 = load ptr, ptr %5, align 8
  call void @llvm.lifetime.start.p0(i64 4, ptr %8) #3
  store i32 0, ptr %8, align 4, !tbaa !16
  br label %11

11:                                               ; preds = %25, %3
  %12 = load i32, ptr %8, align 4, !tbaa !16
  %13 = load i32, ptr %6, align 4, !tbaa !16
  %14 = icmp ult i32 %12, %13
  br i1 %14, label %16, label %15

15:                                               ; preds = %11
  store i32 2, ptr %9, align 4
  br label %28

16:                                               ; preds = %11
  %17 = load ptr, ptr %7, align 8, !tbaa !482
  %18 = load i32, ptr %8, align 4, !tbaa !16
  %19 = zext i32 %18 to i64
  %20 = getelementptr inbounds nuw ptr, ptr %17, i64 %19
  %21 = load ptr, ptr %20, align 8, !tbaa !94
  %22 = call noundef zeroext i1 @_ZNK7datalog13udoc_relation8is_guardEP4expr(ptr noundef nonnull align 8 dereferenceable(128) %10, ptr noundef %21)
  br i1 %22, label %24, label %23

23:                                               ; preds = %16
  store i1 false, ptr %4, align 1
  store i32 1, ptr %9, align 4
  br label %28

24:                                               ; preds = %16
  br label %25

25:                                               ; preds = %24
  %26 = load i32, ptr %8, align 4, !tbaa !16
  %27 = add i32 %26, 1
  store i32 %27, ptr %8, align 4, !tbaa !16
  br label %11, !llvm.loop !483

28:                                               ; preds = %23, %15
  call void @llvm.lifetime.end.p0(i64 4, ptr %8) #3
  %29 = load i32, ptr %9, align 4
  switch i32 %29, label %33 [
    i32 2, label %30
    i32 1, label %31
  ]

30:                                               ; preds = %28
  store i1 true, ptr %4, align 1
  br label %31

31:                                               ; preds = %30, %28
  %32 = load i1, ptr %4, align 1
  ret i1 %32

33:                                               ; preds = %28
  unreachable
}