; Function Attrs: mustprogress uwtable
define hidden noundef zeroext i1 @_ZNK7datalog13udoc_relation8is_guardEjPKP4expr(ptr noundef nonnull readonly align 8 captures(none) dereferenceable(128) %0, i32 noundef %1, ptr noundef readonly captures(none) %2) local_unnamed_addr #3 align 2 {
  %4 = icmp eq i32 %1, 0
  br i1 %4, label %._crit_edge, label %.lr.ph.preheader

.lr.ph.preheader:                                 ; preds = %3
  %wide.trip.count = zext i32 %1 to i64
  br label %.lr.ph

.lr.ph:                                           ; preds = %.lr.ph, %.lr.ph.preheader
  %indvars.iv = phi i64 [ 0, %.lr.ph.preheader ], [ %indvars.iv.next, %.lr.ph ]
  %5 = getelementptr inbounds nuw ptr, ptr %2, i64 %indvars.iv
  %6 = load ptr, ptr %5, align 8, !tbaa !200
  %7 = tail call noundef zeroext i1 @_ZNK7datalog13udoc_relation8is_guardEP4expr(ptr noundef nonnull align 8 dereferenceable(128) %0, ptr noundef %6)
  %indvars.iv.next = add nuw nsw i64 %indvars.iv, 1
  %exitcond.not = icmp ne i64 %indvars.iv.next, %wide.trip.count
  %or.cond.not = select i1 %7, i1 %exitcond.not, i1 false
  br i1 %or.cond.not, label %.lr.ph, label %._crit_edge, !llvm.loop !472

._crit_edge:                                      ; preds = %.lr.ph, %3
  %.lcssa = phi i1 [ true, %3 ], [ %7, %.lr.ph ]
  ret i1 %.lcssa
}